target datalayout = "e-m:e-p270:32:32-p271:32:32-p272:64:64-i64:64-i128:128-f80:128-n8:16:32:64-S128"
target triple = "x86_64-pc-linux-gnu"

%"struct.ncnn::custom_layer_registry_entry" = type { ptr, ptr, ptr, ptr }
%"class.ncnn::Net" = type { ptr, %"class.ncnn::Option", ptr }
%"class.ncnn::Option" = type { i8, i32, ptr, ptr, i32, i8, i8, i8, i8, i8, i8, i8, i8, i8, i8, i8, i8, i8, i8, i8, i8, i8, i8, i8, i8, i32, i8, i8, i8, i8, i8, i8, i8, i8, i8, i8, i8, i8 }
%"class.ncnn::NetPrivate" = type { ptr, %"class.std::vector", %"class.std::vector.0", %"class.std::vector.5", %"class.std::vector.5", %"class.std::vector.10", %"class.std::vector.10", %"class.std::vector.15", %"class.std::vector.20", ptr, ptr }
%"class.std::vector" = type { %"struct.std::_Vector_base" }
%"struct.std::_Vector_base" = type { %"struct.std::_Vector_base<ncnn::Blob, std::allocator<ncnn::Blob>>::_Vector_impl" }
%"struct.std::_Vector_base<ncnn::Blob, std::allocator<ncnn::Blob>>::_Vector_impl" = type { %"struct.std::_Vector_base<ncnn::Blob, std::allocator<ncnn::Blob>>::_Vector_impl_data" }
%"struct.std::_Vector_base<ncnn::Blob, std::allocator<ncnn::Blob>>::_Vector_impl_data" = type { ptr, ptr, ptr }
%"class.std::vector.0" = type { %"struct.std::_Vector_base.1" }
%"struct.std::_Vector_base.1" = type { %"struct.std::_Vector_base<ncnn::Layer *, std::allocator<ncnn::Layer *>>::_Vector_impl" }
%"struct.std::_Vector_base<ncnn::Layer *, std::allocator<ncnn::Layer *>>::_Vector_impl" = type { %"struct.std::_Vector_base<ncnn::Layer *, std::allocator<ncnn::Layer *>>::_Vector_impl_data" }
%"struct.std::_Vector_base<ncnn::Layer *, std::allocator<ncnn::Layer *>>::_Vector_impl_data" = type { ptr, ptr, ptr }
%"class.std::vector.5" = type { %"struct.std::_Vector_base.6" }
%"struct.std::_Vector_base.6" = type { %"struct.std::_Vector_base<int, std::allocator<int>>::_Vector_impl" }
%"struct.std::_Vector_base<int, std::allocator<int>>::_Vector_impl" = type { %"struct.std::_Vector_base<int, std::allocator<int>>::_Vector_impl_data" }
%"struct.std::_Vector_base<int, std::allocator<int>>::_Vector_impl_data" = type { ptr, ptr, ptr }
%"class.std::vector.10" = type { %"struct.std::_Vector_base.11" }
%"struct.std::_Vector_base.11" = type { %"struct.std::_Vector_base<const char *, std::allocator<const char *>>::_Vector_impl" }
%"struct.std::_Vector_base<const char *, std::allocator<const char *>>::_Vector_impl" = type { %"struct.std::_Vector_base<const char *, std::allocator<const char *>>::_Vector_impl_data" }
%"struct.std::_Vector_base<const char *, std::allocator<const char *>>::_Vector_impl_data" = type { ptr, ptr, ptr }
%"class.std::vector.15" = type { %"struct.std::_Vector_base.16" }
%"struct.std::_Vector_base.16" = type { %"struct.std::_Vector_base<ncnn::custom_layer_registry_entry, std::allocator<ncnn::custom_layer_registry_entry>>::_Vector_impl" }
%"struct.std::_Vector_base<ncnn::custom_layer_registry_entry, std::allocator<ncnn::custom_layer_registry_entry>>::_Vector_impl" = type { %"struct.std::_Vector_base<ncnn::custom_layer_registry_entry, std::allocator<ncnn::custom_layer_registry_entry>>::_Vector_impl_data" }
%"struct.std::_Vector_base<ncnn::custom_layer_registry_entry, std::allocator<ncnn::custom_layer_registry_entry>>::_Vector_impl_data" = type { ptr, ptr, ptr }
%"class.std::vector.20" = type { %"struct.std::_Vector_base.21" }
%"struct.std::_Vector_base.21" = type { %"struct.std::_Vector_base<ncnn::overwrite_builtin_layer_registry_entry, std::allocator<ncnn::overwrite_builtin_layer_registry_entry>>::_Vector_impl" }
%"struct.std::_Vector_base<ncnn::overwrite_builtin_layer_registry_entry, std::allocator<ncnn::overwrite_builtin_layer_registry_entry>>::_Vector_impl" = type { %"struct.std::_Vector_base<ncnn::overwrite_builtin_layer_registry_entry, std::allocator<ncnn::overwrite_builtin_layer_registry_entry>>::_Vector_impl_data" }
%"struct.std::_Vector_base<ncnn::overwrite_builtin_layer_registry_entry, std::allocator<ncnn::overwrite_builtin_layer_registry_entry>>::_Vector_impl_data" = type { ptr, ptr, ptr }

; Function Attrs: mustprogress nounwind uwtable
define linkonce_odr hidden noundef nonnull align 8 dereferenceable(32) ptr @_ZNSt6vectorIN4ncnn27custom_layer_registry_entryESaIS1_EEixEm(ptr noundef nonnull align 8 dereferenceable(24) %0, i64 noundef %1) #0 comdat align 2 {
  %3 = alloca ptr, align 8
  %4 = alloca i64, align 8
  store ptr %0, ptr %3, align 8, !tbaa !94
  store i64 %1, ptr %4, align 8, !tbaa !18
  %5 = load ptr, ptr %3, align 8
  %6 = getelementptr inbounds nuw %"struct.std::_Vector_base.16", ptr %5, i32 0, i32 0
  %7 = getelementptr inbounds nuw %"struct.std::_Vector_base<ncnn::custom_layer_registry_entry, std::allocator<ncnn::custom_layer_registry_entry>>::_Vector_impl_data", ptr %6, i32 0, i32 0
  %8 = load ptr, ptr %7, align 8, !tbaa !158
  %9 = load i64, ptr %4, align 8, !tbaa !18
  %10 = getelementptr inbounds nuw %"struct.ncnn::custom_layer_registry_entry", ptr %8, i64 %9
  ret ptr %10
}

; Function Attrs: mustprogress nounwind uwtable
define linkonce_odr hidden noundef i64 @_ZNKSt6vectorIN4ncnn27custom_layer_registry_entryESaIS1_EE4sizeEv(ptr noundef nonnull align 8 dereferenceable(24) %0) #0 comdat align 2 {
  %2 = alloca ptr, align 8
  store ptr %0, ptr %2, align 8, !tbaa !94
  %3 = load ptr, ptr %2, align 8
  %4 = getelementptr inbounds nuw %"struct.std::_Vector_base.16", ptr %3, i32 0, i32 0
  %5 = getelementptr inbounds nuw %"struct.std::_Vector_base<ncnn::custom_layer_registry_entry, std::allocator<ncnn::custom_layer_registry_entry>>::_Vector_impl_data", ptr %4, i32 0, i32 1
  %6 = load ptr, ptr %5, align 8, !tbaa !159
  %7 = getelementptr inbounds nuw %"struct.std::_Vector_base.16", ptr %3, i32 0, i32 0
  %8 = getelementptr inbounds nuw %"struct.std::_Vector_base<ncnn::custom_layer_registry_entry, std::allocator<ncnn::custom_layer_registry_entry>>::_Vector_impl_data", ptr %7, i32 0, i32 0
  %9 = load ptr, ptr %8, align 8, !tbaa !158
  %10 = ptrtoint ptr %6 to i64
  %11 = ptrtoint ptr %9 to i64
  %12 = sub i64 %10, %11
  %13 = sdiv exact i64 %12, 32
  ret i64 %13
}

; Function Attrs: mustprogress nounwind uwtable
define hidden noundef i32 @_ZN4ncnn3Net21custom_layer_to_indexEPKc(ptr noundef nonnull align 8 dereferenceable(80) %0, ptr noundef %1) unnamed_addr #0 align 2 {
  %3 = alloca i32, align 4
  %4 = alloca ptr, align 8
  %5 = alloca ptr, align 8
  %6 = alloca i64, align 8
  %7 = alloca i64, align 8
  %8 = alloca i32, align 4
  store ptr %0, ptr %4, align 8, !tbaa !4
  store ptr %1, ptr %5, align 8, !tbaa !9
  %9 = load ptr, ptr %4, align 8
  call void @llvm.lifetime.start.p0(i64 8, ptr %6) #16
  %10 = getelementptr inbounds nuw %"class.ncnn::Net", ptr %9, i32 0, i32 2
  %11 = load ptr, ptr %10, align 8, !tbaa !11
  %12 = getelementptr inbounds nuw %"class.ncnn::NetPrivate", ptr %11, i32 0, i32 7
  %13 = call noundef i64 @_ZNKSt6vectorIN4ncnn27custom_layer_registry_entryESaIS1_EE4sizeEv(ptr noundef nonnull align 8 dereferenceable(24) %12) #16
  store i64 %13, ptr %6, align 8, !tbaa !18
  call void @llvm.lifetime.start.p0(i64 8, ptr %7) #16
  store i64 0, ptr %7, align 8, !tbaa !18
  br label %14

14:                                               ; preds = %34, %2
  %15 = load i64, ptr %7, align 8, !tbaa !18
  %16 = load i64, ptr %6, align 8, !tbaa !18
  %17 = icmp ult i64 %15, %16
  br i1 %17, label %19, label %18

18:                                               ; preds = %14
  store i32 2, ptr %8, align 4
  br label %37

19:                                               ; preds = %14
  %20 = load ptr, ptr %5, align 8, !tbaa !9
  %21 = getelementptr inbounds nuw %"class.ncnn::Net", ptr %9, i32 0, i32 2
  %22 = load ptr, ptr %21, align 8, !tbaa !11
  %23 = getelementptr inbounds nuw %"class.ncnn::NetPrivate", ptr %22, i32 0, i32 7
  %24 = load i64, ptr %7, align 8, !tbaa !18
  %25 = call noundef nonnull align 8 dereferenceable(32) ptr @_ZNSt6vectorIN4ncnn27custom_layer_registry_entryESaIS1_EEixEm(ptr noundef nonnull align 8 dereferenceable(24) %23, i64 noundef %24) #16
  %26 = getelementptr inbounds nuw %"struct.ncnn::custom_layer_registry_entry", ptr %25, i32 0, i32 0
  %27 = load ptr, ptr %26, align 8, !tbaa !20
  %28 = call i32 @strcmp(ptr noundef %20, ptr noundef %27) #18
  %29 = icmp eq i32 %28, 0
  br i1 %29, label %30, label %33

30:                                               ; preds = %19
  %31 = load i64, ptr %7, align 8, !tbaa !18
  %32 = trunc i64 %31 to i32
  store i32 %32, ptr %3, align 4
  store i32 1, ptr %8, align 4
  br label %37

33:                                               ; preds = %19
  br label %34

34:                                               ; preds = %33
  %35 = load i64, ptr %7, align 8, !tbaa !18
  %36 = add i64 %35, 1
  store i64 %36, ptr %7, align 8, !tbaa !18
  br label %14, !llvm.loop !22

37:                                               ; preds = %30, %18
  call void @llvm.lifetime.end.p0(i64 8, ptr %7) #16
  %38 = load i32, ptr %8, align 4
  switch i32 %38, label %40 [
    i32 2, label %39
  ]

39:                                               ; preds = %37
  store i32 -1, ptr %3, align 4
  store i32 1, ptr %8, align 4
  br label %40

40:                                               ; preds = %39, %37
  call void @llvm.lifetime.end.p0(i64 8, ptr %6) #16
  %41 = load i32, ptr %3, align 4
  ret i32 %41
}