; Function Attrs: mustprogress nofree nounwind willreturn memory(read, inaccessiblemem: none) uwtable
define hidden noundef i32 @_ZN4ncnn3Net21custom_layer_to_indexEPKc(ptr noundef nonnull readonly align 8 captures(none) dereferenceable(80) %0, ptr noundef readonly captures(none) %1) unnamed_addr #1 align 2 {
  %3 = getelementptr inbounds nuw i8, ptr %0, i64 72
  %4 = load ptr, ptr %3, align 8, !tbaa !7
  %5 = getelementptr inbounds nuw i8, ptr %4, i64 152
  %6 = getelementptr inbounds nuw i8, ptr %4, i64 160
  %7 = load ptr, ptr %6, align 8, !tbaa !16
  %8 = load ptr, ptr %5, align 8, !tbaa !19
  %.not11.not = icmp eq ptr %7, %8
  br i1 %.not11.not, label %.loopexit, label %.lr.ph.preheader

.lr.ph.preheader:                                 ; preds = %2
  %9 = ptrtoint ptr %7 to i64
  %10 = ptrtoint ptr %8 to i64
  %11 = sub i64 %9, %10
  %12 = ashr exact i64 %11, 5
  %umax = tail call i64 @llvm.umax.i64(i64 %12, i64 1)
  br label %.lr.ph

.lr.ph:                                           ; preds = %.lr.ph.preheader, %19
  %.0812 = phi i64 [ %20, %19 ], [ 0, %.lr.ph.preheader ]
  %13 = getelementptr inbounds nuw %"struct.ncnn::custom_layer_registry_entry", ptr %8, i64 %.0812
  %14 = load ptr, ptr %13, align 8, !tbaa !20
  %15 = tail call i32 @strcmp(ptr noundef nonnull dereferenceable(1) %1, ptr noundef nonnull dereferenceable(1) %14) #29
  %16 = icmp eq i32 %15, 0
  br i1 %16, label %17, label %19

17:                                               ; preds = %.lr.ph
  %18 = trunc i64 %.0812 to i32
  br label %.loopexit

19:                                               ; preds = %.lr.ph
  %20 = add nuw i64 %.0812, 1
  %exitcond.not = icmp eq i64 %20, %umax
  br i1 %exitcond.not, label %.loopexit, label %.lr.ph, !llvm.loop !23

.loopexit:                                        ; preds = %19, %2, %17
  %spec.select = phi i32 [ %18, %17 ], [ -1, %2 ], [ -1, %19 ]
  ret i32 %spec.select
}